#include <math.h>
#include <stdio.h>
#include <stdlib.h>
#include <string.h>


int main()
{
	int sz[100];
	int n;
	scanf("%d",&n);
    for(int m=0;m<n;m++)
	{
		scanf("%d",&sz[m]);
	}
	if(n%2==0)
	{
		for(int i=0;i<n/2;i++)
		{
			int e;
			e=sz[i];
			sz[i]=sz[n-i-1];
			sz[n-i-1]=e;
		}
	}
	else
	{
		for(int k=0;k<=(n-1)/2;k++)
		{
			int f;
			f=sz[n-1-k];
			sz[n-1-k]=sz[k];
			sz[k]=f;

		}
	}
	for(int a=0;a<n-1;a++)
	{
		printf("%d ",sz[a]);
	
	}
		printf("%d",sz[n-1]);
	return 0;
}